; Function Attrs: mustprogress nounwind uwtable
define hidden void @_ZN9FileUtils13normalizePathENSt7__cxx1112basic_stringIcSt11char_traitsIcESaIcEEE(ptr dead_on_unwind noalias writable sret(%"class.std::__cxx11::basic_string") align 8 %0, ptr noundef nonnull %1) local_unnamed_addr #5 {
  %3 = tail call ptr @_ZNSt7__cxx1112basic_stringIcSt11char_traitsIcESaIcEE5beginEv(ptr noundef nonnull align 8 dereferenceable(32) %1) #7
  %4 = tail call ptr @_ZNSt7__cxx1112basic_stringIcSt11char_traitsIcESaIcEE3endEv(ptr noundef nonnull align 8 dereferenceable(32) %1) #7
  %.not6.i = icmp eq ptr %3, %4
  br i1 %.not6.i, label %_ZSt7replaceIN9__gnu_cxx17__normal_iteratorIPcNSt7__cxx1112basic_stringIcSt11char_traitsIcESaIcEEEEEcEvT_SA_RKT0_SD_.exit, label %.lr.ph.i

.lr.ph.i:                                         ; preds = %2, %8
  %.sroa.02.07.i = phi ptr [ %9, %8 ], [ %3, %2 ]
  %5 = load i8, ptr %.sroa.02.07.i, align 1
  %6 = icmp eq i8 %5, 92
  br i1 %6, label %7, label %8

7:                                                ; preds = %.lr.ph.i
  store i8 47, ptr %.sroa.02.07.i, align 1
  br label %8

8:                                                ; preds = %7, %.lr.ph.i
  %9 = getelementptr inbounds i8, ptr %.sroa.02.07.i, i64 1
  %.not.i = icmp eq ptr %9, %4
  br i1 %.not.i, label %_ZSt7replaceIN9__gnu_cxx17__normal_iteratorIPcNSt7__cxx1112basic_stringIcSt11char_traitsIcESaIcEEEEEcEvT_SA_RKT0_SD_.exit, label %.lr.ph.i, !llvm.loop !8

_ZSt7replaceIN9__gnu_cxx17__normal_iteratorIPcNSt7__cxx1112basic_stringIcSt11char_traitsIcESaIcEEEEEcEvT_SA_RKT0_SD_.exit: ; preds = %8, %2
  tail call void @_ZNSt7__cxx1112basic_stringIcSt11char_traitsIcESaIcEEC1EOS4_(ptr noundef nonnull align 8 dereferenceable(32) %0, ptr noundef nonnull align 8 dereferenceable(32) %1) #7
  ret void
}